; Function Attrs: mustprogress nofree norecurse nosync nounwind willreturn memory(none) uwtable
define noundef i32 @_Z33numGridLinesForExtendedHaloRegioniff(i32 noundef %0, float noundef %1, float noundef %2) local_unnamed_addr #4 {
  %4 = fdiv float %1, %2
  %5 = tail call noundef float @llvm.ceil.f32(float %4)
  %6 = fptosi float %5 to i32
  %.sroa.speculated = tail call i32 @llvm.smax.i32(i32 %6, i32 1)
  %7 = add nsw i32 %0, -1
  %8 = add nsw i32 %7, %.sroa.speculated
  ret i32 %8
}